target datalayout = "e-m:e-p270:32:32-p271:32:32-p272:64:64-i64:64-i128:128-f80:128-n8:16:32:64-S128"
target triple = "x86_64-pc-linux-gnu"

%struct.Ivy_FraigParams_t_ = type { i32, double, i32, i32, double, double, i32, i32, i32, i32, i32 }

; Function Attrs: nounwind uwtable
define ptr @Abc_NtkIvySat(ptr noundef %0, i32 noundef %1, i32 noundef %2) #0 {
  %4 = alloca ptr, align 8
  %5 = alloca ptr, align 8
  %6 = alloca i32, align 4
  %7 = alloca i32, align 4
  %8 = alloca %struct.Ivy_FraigParams_t_, align 8
  %9 = alloca ptr, align 8
  %10 = alloca ptr, align 8
  %11 = alloca ptr, align 8
  %12 = alloca ptr, align 8
  %13 = alloca i32, align 4
  store ptr %0, ptr %5, align 8, !tbaa !3
  store i32 %1, ptr %6, align 4, !tbaa !8
  store i32 %2, ptr %7, align 4, !tbaa !8
  call void @llvm.lifetime.start.p0(i64 64, ptr %8) #11
  call void @llvm.lifetime.start.p0(i64 8, ptr %9) #11
  store ptr %8, ptr %9, align 8, !tbaa !61
  call void @llvm.lifetime.start.p0(i64 8, ptr %10) #11
  call void @llvm.lifetime.start.p0(i64 8, ptr %11) #11
  call void @llvm.lifetime.start.p0(i64 8, ptr %12) #11
  %14 = load ptr, ptr %5, align 8, !tbaa !3
  %15 = call ptr @Abc_NtkIvyBefore(ptr noundef %14, i32 noundef 0, i32 noundef 0)
  store ptr %15, ptr %11, align 8, !tbaa !10
  %16 = load ptr, ptr %11, align 8, !tbaa !10
  %17 = icmp eq ptr %16, null
  br i1 %17, label %18, label %19

18:                                               ; preds = %3
  store ptr null, ptr %4, align 8
  store i32 1, ptr %13, align 4
  br label %36

19:                                               ; preds = %3
  %20 = load ptr, ptr %9, align 8, !tbaa !61
  call void @Ivy_FraigParamsDefault(ptr noundef %20)
  %21 = load i32, ptr %6, align 4, !tbaa !8
  %22 = load ptr, ptr %9, align 8, !tbaa !61
  %23 = getelementptr inbounds nuw %struct.Ivy_FraigParams_t_, ptr %22, i32 0, i32 10
  store i32 %21, ptr %23, align 8, !tbaa !63
  %24 = load i32, ptr %7, align 4, !tbaa !8
  %25 = load ptr, ptr %9, align 8, !tbaa !61
  %26 = getelementptr inbounds nuw %struct.Ivy_FraigParams_t_, ptr %25, i32 0, i32 7
  store i32 %24, ptr %26, align 4, !tbaa !65
  %27 = load ptr, ptr %11, align 8, !tbaa !10
  store ptr %27, ptr %12, align 8, !tbaa !10
  %28 = load ptr, ptr %9, align 8, !tbaa !61
  %29 = call ptr @Ivy_FraigMiter(ptr noundef %27, ptr noundef %28)
  store ptr %29, ptr %11, align 8, !tbaa !10
  %30 = load ptr, ptr %12, align 8, !tbaa !10
  call void @Ivy_ManStop(ptr noundef %30)
  %31 = load ptr, ptr %5, align 8, !tbaa !3
  %32 = load ptr, ptr %11, align 8, !tbaa !10
  %33 = call ptr @Abc_NtkIvyAfter(ptr noundef %31, ptr noundef %32, i32 noundef 0, i32 noundef 0)
  store ptr %33, ptr %10, align 8, !tbaa !3
  %34 = load ptr, ptr %11, align 8, !tbaa !10
  call void @Ivy_ManStop(ptr noundef %34)
  %35 = load ptr, ptr %10, align 8, !tbaa !3
  store ptr %35, ptr %4, align 8
  store i32 1, ptr %13, align 4
  br label %36

36:                                               ; preds = %19, %18
  call void @llvm.lifetime.end.p0(i64 8, ptr %12) #11
  call void @llvm.lifetime.end.p0(i64 8, ptr %11) #11
  call void @llvm.lifetime.end.p0(i64 8, ptr %10) #11
  call void @llvm.lifetime.end.p0(i64 8, ptr %9) #11
  call void @llvm.lifetime.end.p0(i64 64, ptr %8) #11
  %37 = load ptr, ptr %4, align 8
  ret ptr %37
}