; Function Attrs: nounwind uwtable
define noundef ptr @Abc_NtkIvySat(ptr noundef %0, i32 noundef %1, i32 noundef %2) local_unnamed_addr #0 {
  %4 = alloca %struct.Ivy_FraigParams_t_, align 8
  call void @llvm.lifetime.start.p0(i64 64, ptr nonnull %4) #15
  %5 = tail call ptr @Abc_NtkIvyBefore(ptr noundef %0, i32 noundef 0, i32 noundef 0)
  %6 = icmp eq ptr %5, null
  br i1 %6, label %12, label %7

7:                                                ; preds = %3
  call void @Ivy_FraigParamsDefault(ptr noundef nonnull %4) #15
  %8 = getelementptr inbounds nuw i8, ptr %4, i64 56
  store i32 %1, ptr %8, align 8, !tbaa !88
  %9 = getelementptr inbounds nuw i8, ptr %4, i64 44
  store i32 %2, ptr %9, align 4, !tbaa !90
  %10 = call ptr @Ivy_FraigMiter(ptr noundef nonnull %5, ptr noundef nonnull %4) #15
  call void @Ivy_ManStop(ptr noundef nonnull %5) #15
  %11 = call ptr @Abc_NtkIvyAfter(ptr noundef %0, ptr noundef %10, i32 noundef 0, i32 noundef 0)
  call void @Ivy_ManStop(ptr noundef %10) #15
  br label %12

12:                                               ; preds = %3, %7
  %.0 = phi ptr [ %11, %7 ], [ null, %3 ]
  call void @llvm.lifetime.end.p0(i64 64, ptr nonnull %4) #15
  ret ptr %.0
}